; Function Attrs: nounwind uwtable
define hidden noalias ptr @mi_strndup(ptr noundef %0, i64 noundef %1) #3 {
  %3 = tail call align 8 ptr @llvm.threadlocal.address.p0(ptr align 8 @_mi_heap_default)
  %4 = load ptr, ptr %3, align 8, !tbaa !3
  %5 = icmp eq ptr %0, null
  br i1 %5, label %mi_heap_strndup.exit, label %6

6:                                                ; preds = %2
  %7 = tail call i64 @_mi_strnlen(ptr noundef nonnull %0, i64 noundef %1) #19
  %8 = add i64 %7, 1
  %9 = icmp ult i64 %8, 1025
  br i1 %9, label %10, label %mi_heap_malloc.exit.i, !prof !8

10:                                               ; preds = %6
  %11 = add nsw i64 %7, 8
  %12 = lshr i64 %11, 3
  %13 = getelementptr inbounds nuw i8, ptr %4, i64 232
  %14 = getelementptr inbounds nuw [129 x ptr], ptr %13, i64 0, i64 %12
  %15 = load ptr, ptr %14, align 8, !tbaa !9
  %16 = getelementptr inbounds nuw i8, ptr %15, i64 8
  %17 = load ptr, ptr %16, align 8, !tbaa !11
  %18 = icmp eq ptr %17, null
  br i1 %18, label %mi_heap_malloc.exit.i, label %mi_heap_malloc.exit.thread.i, !prof !17

mi_heap_malloc.exit.thread.i:                     ; preds = %10
  %.val.i.i.i.i.i.i = load i64, ptr %17, align 8, !tbaa !18
  %19 = inttoptr i64 %.val.i.i.i.i.i.i to ptr
  store ptr %19, ptr %16, align 8, !tbaa !11
  %20 = getelementptr inbounds nuw i8, ptr %15, i64 24
  %21 = load i16, ptr %20, align 8, !tbaa !20
  %22 = add i16 %21, 1
  store i16 %22, ptr %20, align 8, !tbaa !20
  br label %25

mi_heap_malloc.exit.i:                            ; preds = %10, %6
  %23 = tail call noalias ptr @_mi_malloc_generic(ptr noundef %4, i64 noundef %8, i1 noundef zeroext false, i64 noundef 0) #19
  %24 = icmp eq ptr %23, null
  br i1 %24, label %mi_heap_strndup.exit, label %25

25:                                               ; preds = %mi_heap_malloc.exit.i, %mi_heap_malloc.exit.thread.i
  %.0.i.i.i15.i = phi ptr [ %17, %mi_heap_malloc.exit.thread.i ], [ %23, %mi_heap_malloc.exit.i ]
  tail call void @llvm.memcpy.p0.p0.i64(ptr nonnull align 1 %.0.i.i.i15.i, ptr nonnull readonly align 1 %0, i64 %7, i1 false)
  %26 = getelementptr inbounds nuw i8, ptr %.0.i.i.i15.i, i64 %7
  store i8 0, ptr %26, align 1, !tbaa !29
  br label %mi_heap_strndup.exit

mi_heap_strndup.exit:                             ; preds = %2, %mi_heap_malloc.exit.i, %25
  %.0.i = phi ptr [ null, %2 ], [ %.0.i.i.i15.i, %25 ], [ null, %mi_heap_malloc.exit.i ]
  ret ptr %.0.i
}